target datalayout = "e-m:e-p270:32:32-p271:32:32-p272:64:64-i64:64-f80:128-n8:16:32:64-S128"
target triple = "x86_64-pc-linux-gnu"

@.str = private unnamed_addr constant [4 x i8] c"%d\0A\00", align 1
@.str.1 = private unnamed_addr constant [3 x i8] c"NO\00", align 1
@.str.2 = private unnamed_addr constant [4 x i8] c"%s\0A\00", align 1

; Function Attrs: noinline nounwind uwtable
define dso_local void @main() #0 {
  %1 = alloca i32, align 4
  %2 = alloca i32, align 4
  %3 = alloca i32, align 4
  %4 = alloca i32, align 4
  %5 = alloca i32, align 4
  %6 = alloca i32, align 4
  %7 = alloca [1000 x i32], align 16
  %8 = alloca [1000 x i32], align 16
  %9 = alloca [1000 x i8], align 16
  %10 = alloca [1000 x [10 x i8]], align 16
  store i32 0, i32* %6, align 4
  %11 = bitcast [1000 x i32]* %7 to i8*
  call void @llvm.memset.p0i8.i64(i8* align 16 %11, i8 0, i64 4000, i1 false)
  %12 = bitcast [1000 x i32]* %8 to i8*
  call void @llvm.memset.p0i8.i64(i8* align 16 %12, i8 0, i64 4000, i1 false)
  store i32 0, i32* %3, align 4
  br label %13

13:                                               ; preds = %31, %0
  %14 = load i32, i32* %3, align 4
  %15 = icmp slt i32 %14, 1000
  br i1 %15, label %16, label %34

16:                                               ; preds = %13
  store i32 0, i32* %4, align 4
  br label %17

17:                                               ; preds = %27, %16
  %18 = load i32, i32* %4, align 4
  %19 = icmp slt i32 %18, 10
  br i1 %19, label %20, label %30

20:                                               ; preds = %17
  %21 = load i32, i32* %3, align 4
  %22 = sext i32 %21 to i64
  %23 = getelementptr inbounds [1000 x [10 x i8]], [1000 x [10 x i8]]* %10, i64 0, i64 %22
  %24 = load i32, i32* %4, align 4
  %25 = sext i32 %24 to i64
  %26 = getelementptr inbounds [10 x i8], [10 x i8]* %23, i64 0, i64 %25
  store i8 0, i8* %26, align 1
  br label %27

27:                                               ; preds = %20
  %28 = load i32, i32* %4, align 4
  %29 = add nsw i32 %28, 1
  store i32 %29, i32* %4, align 4
  br label %17

30:                                               ; preds = %17
  br label %31

31:                                               ; preds = %30
  %32 = load i32, i32* %3, align 4
  %33 = add nsw i32 %32, 1
  store i32 %33, i32* %3, align 4
  br label %13

34:                                               ; preds = %13
  %35 = call i32 (i8*, ...) @__isoc99_scanf(i8* getelementptr inbounds ([4 x i8], [4 x i8]* @.str, i64 0, i64 0), i32* %1)
  %36 = getelementptr inbounds [1000 x i8], [1000 x i8]* %9, i64 0, i64 0
  %37 = call i32 (i8*, ...) bitcast (i32 (...)* @gets to i32 (i8*, ...)*)(i8* %36)
  %38 = getelementptr inbounds [1000 x i8], [1000 x i8]* %9, i64 0, i64 0
  %39 = call i64 @strlen(i8* %38) #4
  %40 = trunc i64 %39 to i32
  store i32 %40, i32* %2, align 4
  store i32 0, i32* %3, align 4
  br label %41

41:                                               ; preds = %70, %34
  %42 = load i32, i32* %3, align 4
  %43 = load i32, i32* %2, align 4
  %44 = load i32, i32* %1, align 4
  %45 = sub nsw i32 %43, %44
  %46 = add nsw i32 %45, 2
  %47 = icmp slt i32 %42, %46
  br i1 %47, label %48, label %73

48:                                               ; preds = %41
  store i32 0, i32* %4, align 4
  br label %49

49:                                               ; preds = %66, %48
  %50 = load i32, i32* %4, align 4
  %51 = load i32, i32* %1, align 4
  %52 = icmp slt i32 %50, %51
  br i1 %52, label %53, label %69

53:                                               ; preds = %49
  %54 = load i32, i32* %3, align 4
  %55 = load i32, i32* %4, align 4
  %56 = add nsw i32 %54, %55
  %57 = sext i32 %56 to i64
  %58 = getelementptr inbounds [1000 x i8], [1000 x i8]* %9, i64 0, i64 %57
  %59 = load i8, i8* %58, align 1
  %60 = load i32, i32* %3, align 4
  %61 = sext i32 %60 to i64
  %62 = getelementptr inbounds [1000 x [10 x i8]], [1000 x [10 x i8]]* %10, i64 0, i64 %61
  %63 = load i32, i32* %4, align 4
  %64 = sext i32 %63 to i64
  %65 = getelementptr inbounds [10 x i8], [10 x i8]* %62, i64 0, i64 %64
  store i8 %59, i8* %65, align 1
  br label %66

66:                                               ; preds = %53
  %67 = load i32, i32* %4, align 4
  %68 = add nsw i32 %67, 1
  store i32 %68, i32* %4, align 4
  br label %49

69:                                               ; preds = %49
  br label %70

70:                                               ; preds = %69
  %71 = load i32, i32* %3, align 4
  %72 = add nsw i32 %71, 1
  store i32 %72, i32* %3, align 4
  br label %41

73:                                               ; preds = %41
  store i32 0, i32* %3, align 4
  br label %74

74:                                               ; preds = %114, %73
  %75 = load i32, i32* %3, align 4
  %76 = load i32, i32* %2, align 4
  %77 = load i32, i32* %1, align 4
  %78 = sub nsw i32 %76, %77
  %79 = add nsw i32 %78, 2
  %80 = icmp slt i32 %75, %79
  br i1 %80, label %81, label %117

81:                                               ; preds = %74
  store i32 0, i32* %4, align 4
  br label %82

82:                                               ; preds = %110, %81
  %83 = load i32, i32* %4, align 4
  %84 = load i32, i32* %2, align 4
  %85 = load i32, i32* %1, align 4
  %86 = sub nsw i32 %84, %85
  %87 = add nsw i32 %86, 2
  %88 = icmp slt i32 %83, %87
  br i1 %88, label %89, label %113

89:                                               ; preds = %82
  %90 = load i32, i32* %3, align 4
  %91 = sext i32 %90 to i64
  %92 = getelementptr inbounds [1000 x [10 x i8]], [1000 x [10 x i8]]* %10, i64 0, i64 %91
  %93 = getelementptr inbounds [10 x i8], [10 x i8]* %92, i64 0, i64 0
  %94 = load i32, i32* %4, align 4
  %95 = sext i32 %94 to i64
  %96 = getelementptr inbounds [1000 x [10 x i8]], [1000 x [10 x i8]]* %10, i64 0, i64 %95
  %97 = getelementptr inbounds [10 x i8], [10 x i8]* %96, i64 0, i64 0
  %98 = call i32 @strcmp(i8* %93, i8* %97) #4
  %99 = icmp eq i32 %98, 0
  br i1 %99, label %100, label %109

100:                                              ; preds = %89
  %101 = load i32, i32* %3, align 4
  %102 = sext i32 %101 to i64
  %103 = getelementptr inbounds [1000 x i32], [1000 x i32]* %7, i64 0, i64 %102
  %104 = load i32, i32* %103, align 4
  %105 = add nsw i32 %104, 1
  %106 = load i32, i32* %3, align 4
  %107 = sext i32 %106 to i64
  %108 = getelementptr inbounds [1000 x i32], [1000 x i32]* %7, i64 0, i64 %107
  store i32 %105, i32* %108, align 4
  br label %109

109:                                              ; preds = %100, %89
  br label %110

110:                                              ; preds = %109
  %111 = load i32, i32* %4, align 4
  %112 = add nsw i32 %111, 1
  store i32 %112, i32* %4, align 4
  br label %82

113:                                              ; preds = %82
  br label %114

114:                                              ; preds = %113
  %115 = load i32, i32* %3, align 4
  %116 = add nsw i32 %115, 1
  store i32 %116, i32* %3, align 4
  br label %74

117:                                              ; preds = %74
  store i32 0, i32* %3, align 4
  br label %118

118:                                              ; preds = %138, %117
  %119 = load i32, i32* %3, align 4
  %120 = load i32, i32* %2, align 4
  %121 = load i32, i32* %1, align 4
  %122 = sub nsw i32 %120, %121
  %123 = add nsw i32 %122, 2
  %124 = icmp slt i32 %119, %123
  br i1 %124, label %125, label %141

125:                                              ; preds = %118
  %126 = load i32, i32* %3, align 4
  %127 = sext i32 %126 to i64
  %128 = getelementptr inbounds [1000 x i32], [1000 x i32]* %7, i64 0, i64 %127
  %129 = load i32, i32* %128, align 4
  %130 = load i32, i32* %6, align 4
  %131 = icmp sgt i32 %129, %130
  br i1 %131, label %132, label %137

132:                                              ; preds = %125
  %133 = load i32, i32* %3, align 4
  %134 = sext i32 %133 to i64
  %135 = getelementptr inbounds [1000 x i32], [1000 x i32]* %7, i64 0, i64 %134
  %136 = load i32, i32* %135, align 4
  store i32 %136, i32* %6, align 4
  br label %137

137:                                              ; preds = %132, %125
  br label %138

138:                                              ; preds = %137
  %139 = load i32, i32* %3, align 4
  %140 = add nsw i32 %139, 1
  store i32 %140, i32* %3, align 4
  br label %118

141:                                              ; preds = %118
  %142 = load i32, i32* %6, align 4
  %143 = icmp eq i32 %142, 1
  br i1 %143, label %144, label %146

144:                                              ; preds = %141
  %145 = call i32 (i8*, ...) @printf(i8* getelementptr inbounds ([3 x i8], [3 x i8]* @.str.1, i64 0, i64 0))
  br label %213

146:                                              ; preds = %141
  %147 = load i32, i32* %6, align 4
  %148 = call i32 (i8*, ...) @printf(i8* getelementptr inbounds ([4 x i8], [4 x i8]* @.str, i64 0, i64 0), i32 %147)
  store i32 0, i32* %3, align 4
  br label %149

149:                                              ; preds = %209, %146
  %150 = load i32, i32* %3, align 4
  %151 = load i32, i32* %2, align 4
  %152 = load i32, i32* %1, align 4
  %153 = sub nsw i32 %151, %152
  %154 = add nsw i32 %153, 2
  %155 = icmp slt i32 %150, %154
  br i1 %155, label %156, label %212

156:                                              ; preds = %149
  %157 = load i32, i32* %6, align 4
  %158 = icmp eq i32 %157, 1
  br i1 %158, label %159, label %161

159:                                              ; preds = %156
  %160 = call i32 (i8*, ...) @printf(i8* getelementptr inbounds ([3 x i8], [3 x i8]* @.str.1, i64 0, i64 0))
  br label %212

161:                                              ; preds = %156
  %162 = load i32, i32* %3, align 4
  %163 = sext i32 %162 to i64
  %164 = getelementptr inbounds [1000 x i32], [1000 x i32]* %7, i64 0, i64 %163
  %165 = load i32, i32* %164, align 4
  %166 = load i32, i32* %6, align 4
  %167 = icmp eq i32 %165, %166
  br i1 %167, label %168, label %208

168:                                              ; preds = %161
  %169 = load i32, i32* %3, align 4
  %170 = sext i32 %169 to i64
  %171 = getelementptr inbounds [1000 x i32], [1000 x i32]* %8, i64 0, i64 %170
  %172 = load i32, i32* %171, align 4
  %173 = icmp eq i32 %172, 0
  br i1 %173, label %174, label %208

174:                                              ; preds = %168
  %175 = load i32, i32* %3, align 4
  %176 = sext i32 %175 to i64
  %177 = getelementptr inbounds [1000 x [10 x i8]], [1000 x [10 x i8]]* %10, i64 0, i64 %176
  %178 = getelementptr inbounds [10 x i8], [10 x i8]* %177, i64 0, i64 0
  %179 = call i32 (i8*, ...) @printf(i8* getelementptr inbounds ([4 x i8], [4 x i8]* @.str.2, i64 0, i64 0), i8* %178)
  %180 = load i32, i32* %3, align 4
  store i32 %180, i32* %5, align 4
  br label %181

181:                                              ; preds = %204, %174
  %182 = load i32, i32* %5, align 4
  %183 = load i32, i32* %2, align 4
  %184 = load i32, i32* %1, align 4
  %185 = sub nsw i32 %183, %184
  %186 = add nsw i32 %185, 2
  %187 = icmp slt i32 %182, %186
  br i1 %187, label %188, label %207

188:                                              ; preds = %181
  %189 = load i32, i32* %5, align 4
  %190 = sext i32 %189 to i64
  %191 = getelementptr inbounds [1000 x [10 x i8]], [1000 x [10 x i8]]* %10, i64 0, i64 %190
  %192 = getelementptr inbounds [10 x i8], [10 x i8]* %191, i64 0, i64 0
  %193 = load i32, i32* %3, align 4
  %194 = sext i32 %193 to i64
  %195 = getelementptr inbounds [1000 x [10 x i8]], [1000 x [10 x i8]]* %10, i64 0, i64 %194
  %196 = getelementptr inbounds [10 x i8], [10 x i8]* %195, i64 0, i64 0
  %197 = call i32 @strcmp(i8* %192, i8* %196) #4
  %198 = icmp eq i32 %197, 0
  br i1 %198, label %199, label %203

199:                                              ; preds = %188
  %200 = load i32, i32* %5, align 4
  %201 = sext i32 %200 to i64
  %202 = getelementptr inbounds [1000 x i32], [1000 x i32]* %8, i64 0, i64 %201
  store i32 1, i32* %202, align 4
  br label %203

203:                                              ; preds = %199, %188
  br label %204

204:                                              ; preds = %203
  %205 = load i32, i32* %5, align 4
  %206 = add nsw i32 %205, 1
  store i32 %206, i32* %5, align 4
  br label %181

207:                                              ; preds = %181
  br label %208

208:                                              ; preds = %207, %168, %161
  br label %209

209:                                              ; preds = %208
  %210 = load i32, i32* %3, align 4
  %211 = add nsw i32 %210, 1
  store i32 %211, i32* %3, align 4
  br label %149

212:                                              ; preds = %159, %149
  br label %213

213:                                              ; preds = %212, %144
  ret void
}